target datalayout = "e-m:e-p270:32:32-p271:32:32-p272:64:64-i64:64-i128:128-f80:128-n8:16:32:64-S128"
target triple = "x86_64-pc-linux-gnu"

%union.ufmt_args = type { i64 }
%struct.u_scanf_spec_info = type { i32, i16, i16, i8, i8, i8, i8, i8, i8 }

; Function Attrs: mustprogress nounwind uwtable
define internal noundef i32 @_ZL21u_scanf_count_handlerP5UFILEP17u_scanf_spec_infoP9ufmt_argsPKDsPiS7_(ptr noundef %0, ptr noundef %1, ptr noundef %2, ptr noundef %3, ptr noundef %4, ptr noundef %5) #3 {
  %7 = alloca ptr, align 8
  %8 = alloca ptr, align 8
  %9 = alloca ptr, align 8
  %10 = alloca ptr, align 8
  %11 = alloca ptr, align 8
  %12 = alloca ptr, align 8
  store ptr %0, ptr %7, align 8, !tbaa !3
  store ptr %1, ptr %8, align 8, !tbaa !35
  store ptr %2, ptr %9, align 8, !tbaa !50
  store ptr %3, ptr %10, align 8, !tbaa !8
  store ptr %4, ptr %11, align 8, !tbaa !52
  store ptr %5, ptr %12, align 8, !tbaa !52
  %13 = load ptr, ptr %8, align 8, !tbaa !35
  %14 = getelementptr inbounds nuw %struct.u_scanf_spec_info, ptr %13, i32 0, i32 3
  %15 = load i8, ptr %14, align 4, !tbaa !41
  %16 = icmp ne i8 %15, 0
  br i1 %16, label %54, label %17

17:                                               ; preds = %6
  %18 = load ptr, ptr %8, align 8, !tbaa !35
  %19 = getelementptr inbounds nuw %struct.u_scanf_spec_info, ptr %18, i32 0, i32 5
  %20 = load i8, ptr %19, align 2, !tbaa !43
  %21 = icmp ne i8 %20, 0
  br i1 %21, label %22, label %31

22:                                               ; preds = %17
  %23 = load ptr, ptr %8, align 8, !tbaa !35
  %24 = getelementptr inbounds nuw %struct.u_scanf_spec_info, ptr %23, i32 0, i32 0
  %25 = load i32, ptr %24, align 4, !tbaa !38
  %26 = and i32 65535, %25
  %27 = trunc i32 %26 to i16
  %28 = load ptr, ptr %9, align 8, !tbaa !50
  %29 = getelementptr inbounds %union.ufmt_args, ptr %28, i64 0
  %30 = load ptr, ptr %29, align 8, !tbaa !28
  store i16 %27, ptr %30, align 2, !tbaa !21
  br label %53

31:                                               ; preds = %17
  %32 = load ptr, ptr %8, align 8, !tbaa !35
  %33 = getelementptr inbounds nuw %struct.u_scanf_spec_info, ptr %32, i32 0, i32 7
  %34 = load i8, ptr %33, align 4, !tbaa !45
  %35 = icmp ne i8 %34, 0
  br i1 %35, label %36, label %44

36:                                               ; preds = %31
  %37 = load ptr, ptr %8, align 8, !tbaa !35
  %38 = getelementptr inbounds nuw %struct.u_scanf_spec_info, ptr %37, i32 0, i32 0
  %39 = load i32, ptr %38, align 4, !tbaa !38
  %40 = sext i32 %39 to i64
  %41 = load ptr, ptr %9, align 8, !tbaa !50
  %42 = getelementptr inbounds %union.ufmt_args, ptr %41, i64 0
  %43 = load ptr, ptr %42, align 8, !tbaa !28
  store i64 %40, ptr %43, align 8, !tbaa !74
  br label %52

44:                                               ; preds = %31
  %45 = load ptr, ptr %8, align 8, !tbaa !35
  %46 = getelementptr inbounds nuw %struct.u_scanf_spec_info, ptr %45, i32 0, i32 0
  %47 = load i32, ptr %46, align 4, !tbaa !38
  %48 = and i32 -1, %47
  %49 = load ptr, ptr %9, align 8, !tbaa !50
  %50 = getelementptr inbounds %union.ufmt_args, ptr %49, i64 0
  %51 = load ptr, ptr %50, align 8, !tbaa !28
  store i32 %48, ptr %51, align 4, !tbaa !12
  br label %52

52:                                               ; preds = %44, %36
  br label %53

53:                                               ; preds = %52, %22
  br label %54

54:                                               ; preds = %53, %6
  %55 = load ptr, ptr %12, align 8, !tbaa !52
  store i32 0, ptr %55, align 4, !tbaa !12
  ret i32 0
}