; Function Attrs: mustprogress nofree norecurse nosync nounwind willreturn memory(write, argmem: readwrite, inaccessiblemem: none) uwtable
define internal noundef i32 @_ZL21u_scanf_count_handlerP5UFILEP17u_scanf_spec_infoP9ufmt_argsPKDsPiS7_(ptr readnone captures(none) %0, ptr noundef readonly captures(none) %1, ptr noundef readonly captures(none) %2, ptr readnone captures(none) %3, ptr readnone captures(none) %4, ptr noundef writeonly captures(none) initializes((0, 4)) %5) #3 {
  %7 = getelementptr inbounds nuw i8, ptr %1, i64 8
  %8 = load i8, ptr %7, align 4, !tbaa !19
  %.not = icmp eq i8 %8, 0
  br i1 %.not, label %9, label %25

9:                                                ; preds = %6
  %10 = getelementptr inbounds nuw i8, ptr %1, i64 10
  %11 = load i8, ptr %10, align 2, !tbaa !22
  %.not10 = icmp eq i8 %11, 0
  br i1 %.not10, label %16, label %12

12:                                               ; preds = %9
  %13 = load i32, ptr %1, align 4, !tbaa !14
  %14 = trunc i32 %13 to i16
  %15 = load ptr, ptr %2, align 8, !tbaa !33
  store i16 %14, ptr %15, align 2, !tbaa !56
  br label %25

16:                                               ; preds = %9
  %17 = getelementptr inbounds nuw i8, ptr %1, i64 12
  %18 = load i8, ptr %17, align 4, !tbaa !23
  %.not11 = icmp eq i8 %18, 0
  %19 = load i32, ptr %1, align 4, !tbaa !14
  br i1 %.not11, label %23, label %20

20:                                               ; preds = %16
  %21 = sext i32 %19 to i64
  %22 = load ptr, ptr %2, align 8, !tbaa !33
  store i64 %21, ptr %22, align 8, !tbaa !58
  br label %25

23:                                               ; preds = %16
  %24 = load ptr, ptr %2, align 8, !tbaa !33
  store i32 %19, ptr %24, align 4, !tbaa !3
  br label %25

25:                                               ; preds = %12, %23, %20, %6
  store i32 0, ptr %5, align 4, !tbaa !3
  ret i32 0
}